target datalayout = "e-m:e-p270:32:32-p271:32:32-p272:64:64-i64:64-i128:128-f80:128-n8:16:32:64-S128"
target triple = "x86_64-pc-linux-gnu"

%struct.H5F_t = type { ptr, ptr, ptr, ptr, i32, ptr, i8, i8, ptr, i32 }
%struct.H5F_shared_t = type { ptr, ptr, ptr, i8, i32, i32, %struct.H5F_mtab_t, ptr, i8, i8, i64, i32, i32, i64, i64, ptr, ptr, %struct.H5AC_cache_config_t, %struct.H5AC_cache_image_config_t, i8, i8, ptr, i64, i32, i8, i64, i64, double, i64, i64, i64, i32, i32, i32, i8, i32, ptr, ptr, ptr, ptr, i8, i8, i8, i64, i64, ptr, ptr, i32, i64, i8, i32, i8, i64, i8, [13 x i32], [13 x i64], [13 x ptr], i8, i64, i64, [7 x i32], [7 x i32], %struct.H5F_blk_aggr_t, %struct.H5F_blk_aggr_t, i64, i64, %struct.H5F_meta_accum_t, i32, i32, [30 x ptr], %struct.H5F_object_flush_t, i8, ptr }
%struct.H5F_mtab_t = type { i32, i32, ptr }
%struct.H5AC_cache_config_t = type { i32, i8, i8, i8, [1025 x i8], i8, i8, i64, double, i64, i64, i64, i32, double, double, i8, i64, i32, double, double, i32, double, double, i8, i64, i32, i8, double, i64, i32 }
%struct.H5AC_cache_image_config_t = type { i32, i8, i8, i32 }
%struct.H5F_blk_aggr_t = type { i64, i64, i64, i64, i64 }
%struct.H5F_meta_accum_t = type { ptr, i64, i64, i64, i64, i64, i8 }
%struct.H5F_object_flush_t = type { ptr, ptr }

@.str = private unnamed_addr constant [102 x i8] c"generated/home/dtcxzyw/WorkSpace/Projects/compilers/llvm-opt-benchmark/bench/hdf5/hdf5/src/H5MFaggr.c\00", align 1
@__func__.H5MF_aggr_vfd_alloc = private unnamed_addr constant [20 x i8] c"H5MF_aggr_vfd_alloc\00", align 1
@H5E_RESOURCE_g = external global i64, align 8
@H5E_CANTALLOC_g = external global i64, align 8
@.str.1 = private unnamed_addr constant [24 x i8] c"can't allocate metadata\00", align 1
@.str.2 = private unnamed_addr constant [24 x i8] c"can't allocate raw data\00", align 1

; Function Attrs: nounwind uwtable
define i64 @H5MF_aggr_vfd_alloc(ptr noundef %0, i32 noundef %1, i64 noundef %2) #0 {
  %4 = alloca ptr, align 8
  %5 = alloca i32, align 4
  %6 = alloca i64, align 8
  %7 = alloca i64, align 8
  %8 = alloca i8, align 1
  store ptr %0, ptr %4, align 8
  store i32 %1, ptr %5, align 4
  store i64 %2, ptr %6, align 8
  store i64 -1, ptr %7, align 8
  store i8 0, ptr %8, align 1
  %9 = load i32, ptr %5, align 4
  %10 = icmp ne i32 %9, 3
  br i1 %10, label %11, label %44

11:                                               ; preds = %3
  %12 = load i32, ptr %5, align 4
  %13 = icmp ne i32 %12, 4
  br i1 %13, label %14, label %44

14:                                               ; preds = %11
  %15 = load ptr, ptr %4, align 8
  %16 = load ptr, ptr %4, align 8
  %17 = getelementptr inbounds %struct.H5F_t, ptr %16, i32 0, i32 2
  %18 = load ptr, ptr %17, align 8
  %19 = getelementptr inbounds %struct.H5F_shared_t, ptr %18, i32 0, i32 62
  %20 = load ptr, ptr %4, align 8
  %21 = getelementptr inbounds %struct.H5F_t, ptr %20, i32 0, i32 2
  %22 = load ptr, ptr %21, align 8
  %23 = getelementptr inbounds %struct.H5F_shared_t, ptr %22, i32 0, i32 63
  %24 = load i32, ptr %5, align 4
  %25 = load i64, ptr %6, align 8
  %26 = call i64 @H5MF__aggr_alloc(ptr noundef %15, ptr noundef %19, ptr noundef %23, i32 noundef %24, i64 noundef %25)
  store i64 %26, ptr %7, align 8
  %27 = icmp eq i64 -1, %26
  br i1 %27, label %28, label %43

28:                                               ; preds = %14
  br label %29

29:                                               ; preds = %28
  br label %30

30:                                               ; preds = %29
  br label %31

31:                                               ; preds = %30
  %32 = load i64, ptr @H5E_RESOURCE_g, align 8
  %33 = load i64, ptr @H5E_CANTALLOC_g, align 8
  %34 = call i32 (ptr, ptr, i32, i64, i64, ptr, ...) @H5E_printf_stack(ptr noundef @.str, ptr noundef @__func__.H5MF_aggr_vfd_alloc, i32 noundef 101, i64 noundef %32, i64 noundef %33, ptr noundef @.str.1)
  br label %35

35:                                               ; preds = %31
  store i8 1, ptr %8, align 1
  %36 = load i8, ptr %8, align 1
  %37 = trunc i8 %36 to i1
  %38 = zext i1 %37 to i8
  store i8 %38, ptr %8, align 1
  br label %39

39:                                               ; preds = %35
  br label %40

40:                                               ; preds = %39
  store i64 -1, ptr %7, align 8
  br label %74

41:                                               ; No predecessors!
  br label %42

42:                                               ; preds = %41
  br label %43

43:                                               ; preds = %42, %14
  br label %73

44:                                               ; preds = %11, %3
  %45 = load ptr, ptr %4, align 8
  %46 = load ptr, ptr %4, align 8
  %47 = getelementptr inbounds %struct.H5F_t, ptr %46, i32 0, i32 2
  %48 = load ptr, ptr %47, align 8
  %49 = getelementptr inbounds %struct.H5F_shared_t, ptr %48, i32 0, i32 63
  %50 = load ptr, ptr %4, align 8
  %51 = getelementptr inbounds %struct.H5F_t, ptr %50, i32 0, i32 2
  %52 = load ptr, ptr %51, align 8
  %53 = getelementptr inbounds %struct.H5F_shared_t, ptr %52, i32 0, i32 62
  %54 = load i64, ptr %6, align 8
  %55 = call i64 @H5MF__aggr_alloc(ptr noundef %45, ptr noundef %49, ptr noundef %53, i32 noundef 3, i64 noundef %54)
  store i64 %55, ptr %7, align 8
  %56 = icmp eq i64 -1, %55
  br i1 %56, label %57, label %72

57:                                               ; preds = %44
  br label %58

58:                                               ; preds = %57
  br label %59

59:                                               ; preds = %58
  br label %60

60:                                               ; preds = %59
  %61 = load i64, ptr @H5E_RESOURCE_g, align 8
  %62 = load i64, ptr @H5E_CANTALLOC_g, align 8
  %63 = call i32 (ptr, ptr, i32, i64, i64, ptr, ...) @H5E_printf_stack(ptr noundef @.str, ptr noundef @__func__.H5MF_aggr_vfd_alloc, i32 noundef 107, i64 noundef %61, i64 noundef %62, ptr noundef @.str.2)
  br label %64

64:                                               ; preds = %60
  store i8 1, ptr %8, align 1
  %65 = load i8, ptr %8, align 1
  %66 = trunc i8 %65 to i1
  %67 = zext i1 %66 to i8
  store i8 %67, ptr %8, align 1
  br label %68

68:                                               ; preds = %64
  br label %69

69:                                               ; preds = %68
  store i64 -1, ptr %7, align 8
  br label %74

70:                                               ; No predecessors!
  br label %71

71:                                               ; preds = %70
  br label %72

72:                                               ; preds = %71, %44
  br label %73

73:                                               ; preds = %72, %43
  br label %74

74:                                               ; preds = %73, %69, %40
  %75 = load i64, ptr %7, align 8
  ret i64 %75
}