; Function Attrs: nounwind uwtable
define i64 @H5MF_aggr_vfd_alloc(ptr noundef %0, i32 noundef %1, i64 noundef %2) local_unnamed_addr #0 {
  %4 = add i32 %1, -5
  %or.cond = icmp ult i32 %4, -2
  %5 = getelementptr inbounds i8, ptr %0, i64 16
  %6 = load ptr, ptr %5, align 8
  br i1 %or.cond, label %7, label %16

7:                                                ; preds = %3
  %8 = getelementptr inbounds i8, ptr %6, i64 1904
  %9 = getelementptr inbounds i8, ptr %6, i64 1944
  %10 = tail call fastcc i64 @H5MF__aggr_alloc(ptr noundef %0, ptr noundef nonnull %8, ptr noundef nonnull %9, i32 noundef %1, i64 noundef %2)
  %11 = icmp eq i64 %10, -1
  br i1 %11, label %12, label %25

12:                                               ; preds = %7
  %13 = load i64, ptr @H5E_RESOURCE_g, align 8
  %14 = load i64, ptr @H5E_CANTALLOC_g, align 8
  %15 = tail call i32 (ptr, ptr, i32, i64, i64, ptr, ...) @H5E_printf_stack(ptr noundef nonnull @.str, ptr noundef nonnull @__func__.H5MF_aggr_vfd_alloc, i32 noundef 101, i64 noundef %13, i64 noundef %14, ptr noundef nonnull @.str.1) #6
  br label %25

16:                                               ; preds = %3
  %17 = getelementptr inbounds i8, ptr %6, i64 1944
  %18 = getelementptr inbounds i8, ptr %6, i64 1904
  %19 = tail call fastcc i64 @H5MF__aggr_alloc(ptr noundef %0, ptr noundef nonnull %17, ptr noundef nonnull %18, i32 noundef 3, i64 noundef %2)
  %20 = icmp eq i64 %19, -1
  br i1 %20, label %21, label %25

21:                                               ; preds = %16
  %22 = load i64, ptr @H5E_RESOURCE_g, align 8
  %23 = load i64, ptr @H5E_CANTALLOC_g, align 8
  %24 = tail call i32 (ptr, ptr, i32, i64, i64, ptr, ...) @H5E_printf_stack(ptr noundef nonnull @.str, ptr noundef nonnull @__func__.H5MF_aggr_vfd_alloc, i32 noundef 107, i64 noundef %22, i64 noundef %23, ptr noundef nonnull @.str.2) #6
  br label %25

25:                                               ; preds = %7, %16, %21, %12
  %.0 = phi i64 [ -1, %12 ], [ %10, %7 ], [ -1, %21 ], [ %19, %16 ]
  ret i64 %.0
}